target datalayout = "e-m:e-p270:32:32-p271:32:32-p272:64:64-i64:64-i128:128-f80:128-n8:16:32:64-S128"
target triple = "x86_64-pc-linux-gnu"

%"class.llvm::StringRef" = type { ptr, i64 }
%"class.std::optional.245" = type { %"struct.std::_Optional_base.246" }
%"struct.std::_Optional_base.246" = type { %"struct.std::_Optional_payload.248" }
%"struct.std::_Optional_payload.248" = type { %"struct.std::_Optional_payload_base.base.250", [7 x i8] }
%"struct.std::_Optional_payload_base.base.250" = type <{ %"union.std::_Optional_payload_base<llvm::DIFile::ChecksumInfo<llvm::StringRef>>::_Storage", i8 }>
%"union.std::_Optional_payload_base<llvm::DIFile::ChecksumInfo<llvm::StringRef>>::_Storage" = type { %"struct.llvm::DIFile::ChecksumInfo" }
%"struct.llvm::DIFile::ChecksumInfo" = type { i32, %"class.llvm::StringRef" }
%"class.std::optional.253" = type { %"struct.std::_Optional_base.254" }
%"struct.std::_Optional_base.254" = type { %"struct.std::_Optional_payload.256" }
%"struct.std::_Optional_payload.256" = type { %"struct.std::_Optional_payload_base.base.258", [7 x i8] }
%"struct.std::_Optional_payload_base.base.258" = type <{ %"union.std::_Optional_payload_base<llvm::StringRef>::_Storage", i8 }>
%"union.std::_Optional_payload_base<llvm::StringRef>::_Storage" = type { %"class.llvm::StringRef" }
%"struct.std::_Optional_payload_base.249" = type <{ %"union.std::_Optional_payload_base<llvm::DIFile::ChecksumInfo<llvm::StringRef>>::_Storage", i8, [7 x i8] }>
%"struct.std::_Optional_payload_base.257" = type <{ %"union.std::_Optional_payload_base<llvm::StringRef>::_Storage", i8, [7 x i8] }>

; Function Attrs: mustprogress nounwind uwtable
define linkonce_odr hidden void @_ZNSt22_Optional_payload_baseIN4llvm9StringRefEE8_StorageIS1_Lb1EEC2Ev(ptr noundef nonnull align 8 dereferenceable(16) %0) unnamed_addr #0 comdat align 2 {
  %2 = alloca ptr, align 8
  store ptr %0, ptr %2, align 8
  ret void
}

; Function Attrs: mustprogress nounwind uwtable
define linkonce_odr hidden void @_ZNSt22_Optional_payload_baseIN4llvm6DIFile12ChecksumInfoINS0_9StringRefEEEE8_StorageIS4_Lb1EEC2Ev(ptr noundef nonnull align 8 dereferenceable(24) %0) unnamed_addr #0 comdat align 2 {
  %2 = alloca ptr, align 8
  store ptr %0, ptr %2, align 8
  ret void
}

; Function Attrs: mustprogress nounwind uwtable
define linkonce_odr hidden void @_ZNSt22_Optional_payload_baseIN4llvm9StringRefEEC2Ev(ptr noundef nonnull align 8 dereferenceable(17) %0) unnamed_addr #0 comdat align 2 {
  %2 = alloca ptr, align 8
  store ptr %0, ptr %2, align 8
  %3 = load ptr, ptr %2, align 8
  %4 = getelementptr inbounds nuw %"struct.std::_Optional_payload_base.257", ptr %3, i32 0, i32 0
  call void @_ZNSt22_Optional_payload_baseIN4llvm9StringRefEE8_StorageIS1_Lb1EEC2Ev(ptr noundef nonnull align 8 dereferenceable(16) %4) #11
  %5 = getelementptr inbounds nuw %"struct.std::_Optional_payload_base.257", ptr %3, i32 0, i32 1
  store i8 0, ptr %5, align 8
  ret void
}

; Function Attrs: mustprogress nounwind uwtable
define linkonce_odr hidden void @_ZNSt22_Optional_payload_baseIN4llvm6DIFile12ChecksumInfoINS0_9StringRefEEEEC2Ev(ptr noundef nonnull align 8 dereferenceable(25) %0) unnamed_addr #0 comdat align 2 {
  %2 = alloca ptr, align 8
  store ptr %0, ptr %2, align 8
  %3 = load ptr, ptr %2, align 8
  %4 = getelementptr inbounds nuw %"struct.std::_Optional_payload_base.249", ptr %3, i32 0, i32 0
  call void @_ZNSt22_Optional_payload_baseIN4llvm6DIFile12ChecksumInfoINS0_9StringRefEEEE8_StorageIS4_Lb1EEC2Ev(ptr noundef nonnull align 8 dereferenceable(24) %4) #11
  %5 = getelementptr inbounds nuw %"struct.std::_Optional_payload_base.249", ptr %3, i32 0, i32 1
  store i8 0, ptr %5, align 8
  ret void
}

; Function Attrs: mustprogress nounwind uwtable
define linkonce_odr hidden void @_ZNSt17_Optional_payloadIN4llvm9StringRefELb1ELb1ELb1EEC2Ev(ptr noundef nonnull align 8 dereferenceable(17) %0) unnamed_addr #0 comdat align 2 {
  %2 = alloca ptr, align 8
  store ptr %0, ptr %2, align 8
  %3 = load ptr, ptr %2, align 8
  call void @_ZNSt22_Optional_payload_baseIN4llvm9StringRefEEC2Ev(ptr noundef nonnull align 8 dereferenceable(17) %3) #11
  ret void
}

; Function Attrs: mustprogress nounwind uwtable
define linkonce_odr hidden void @_ZNSt17_Optional_payloadIN4llvm6DIFile12ChecksumInfoINS0_9StringRefEEELb1ELb1ELb1EEC2Ev(ptr noundef nonnull align 8 dereferenceable(25) %0) unnamed_addr #0 comdat align 2 {
  %2 = alloca ptr, align 8
  store ptr %0, ptr %2, align 8
  %3 = load ptr, ptr %2, align 8
  call void @_ZNSt22_Optional_payload_baseIN4llvm6DIFile12ChecksumInfoINS0_9StringRefEEEEC2Ev(ptr noundef nonnull align 8 dereferenceable(25) %3) #11
  ret void
}

; Function Attrs: mustprogress nounwind uwtable
define linkonce_odr hidden void @_ZNSt14_Optional_baseIN4llvm9StringRefELb1ELb1EEC2Ev(ptr noundef nonnull align 8 dereferenceable(24) %0) unnamed_addr #0 comdat align 2 {
  %2 = alloca ptr, align 8
  store ptr %0, ptr %2, align 8
  %3 = load ptr, ptr %2, align 8
  %4 = getelementptr inbounds nuw %"struct.std::_Optional_base.254", ptr %3, i32 0, i32 0
  call void @_ZNSt17_Optional_payloadIN4llvm9StringRefELb1ELb1ELb1EEC2Ev(ptr noundef nonnull align 8 dereferenceable(17) %4) #11
  ret void
}

; Function Attrs: mustprogress nounwind uwtable
define linkonce_odr hidden void @_ZNSt14_Optional_baseIN4llvm6DIFile12ChecksumInfoINS0_9StringRefEEELb1ELb1EEC2Ev(ptr noundef nonnull align 8 dereferenceable(32) %0) unnamed_addr #0 comdat align 2 {
  %2 = alloca ptr, align 8
  store ptr %0, ptr %2, align 8
  %3 = load ptr, ptr %2, align 8
  %4 = getelementptr inbounds nuw %"struct.std::_Optional_base.246", ptr %3, i32 0, i32 0
  call void @_ZNSt17_Optional_payloadIN4llvm6DIFile12ChecksumInfoINS0_9StringRefEEELb1ELb1ELb1EEC2Ev(ptr noundef nonnull align 8 dereferenceable(25) %4) #11
  ret void
}

; Function Attrs: mustprogress nounwind uwtable
define linkonce_odr hidden noundef ptr @_ZN4llvm4wrapEPKNS_8MetadataE(ptr noundef %0) #0 comdat {
  %2 = alloca ptr, align 8
  store ptr %0, ptr %2, align 8
  %3 = load ptr, ptr %2, align 8
  ret ptr %3
}

; Function Attrs: mustprogress nounwind uwtable
define linkonce_odr hidden void @_ZNSt8optionalIN4llvm9StringRefEEC2ESt9nullopt_t(ptr noundef nonnull align 8 dereferenceable(24) %0) unnamed_addr #0 comdat align 2 {
  %2 = alloca ptr, align 8
  store ptr %0, ptr %2, align 8
  %3 = load ptr, ptr %2, align 8
  call void @_ZNSt14_Optional_baseIN4llvm9StringRefELb1ELb1EEC2Ev(ptr noundef nonnull align 8 dereferenceable(24) %3) #11
  ret void
}

; Function Attrs: mustprogress nounwind uwtable
define linkonce_odr hidden void @_ZNSt8optionalIN4llvm6DIFile12ChecksumInfoINS0_9StringRefEEEEC2ESt9nullopt_t(ptr noundef nonnull align 8 dereferenceable(32) %0) unnamed_addr #0 comdat align 2 {
  %2 = alloca ptr, align 8
  store ptr %0, ptr %2, align 8
  %3 = load ptr, ptr %2, align 8
  call void @_ZNSt14_Optional_baseIN4llvm6DIFile12ChecksumInfoINS0_9StringRefEEELb1ELb1EEC2Ev(ptr noundef nonnull align 8 dereferenceable(32) %3) #11
  ret void
}

; Function Attrs: mustprogress nounwind uwtable
define linkonce_odr hidden void @_ZN4llvm9StringRefC2EPKcm(ptr noundef nonnull align 8 dereferenceable(16) %0, ptr noundef %1, i64 noundef %2) unnamed_addr #0 comdat align 2 {
  %4 = alloca ptr, align 8
  %5 = alloca ptr, align 8
  %6 = alloca i64, align 8
  store ptr %0, ptr %4, align 8
  store ptr %1, ptr %5, align 8
  store i64 %2, ptr %6, align 8
  %7 = load ptr, ptr %4, align 8
  %8 = getelementptr inbounds nuw %"class.llvm::StringRef", ptr %7, i32 0, i32 0
  %9 = load ptr, ptr %5, align 8
  store ptr %9, ptr %8, align 8
  %10 = getelementptr inbounds nuw %"class.llvm::StringRef", ptr %7, i32 0, i32 1
  %11 = load i64, ptr %6, align 8
  store i64 %11, ptr %10, align 8
  ret void
}

; Function Attrs: mustprogress nounwind uwtable
define linkonce_odr hidden noundef ptr @_ZN4llvm6unwrapEP19LLVMOpaqueDIBuilder(ptr noundef %0) #0 comdat {
  %2 = alloca ptr, align 8
  store ptr %0, ptr %2, align 8
  %3 = load ptr, ptr %2, align 8
  ret ptr %3
}

; Function Attrs: mustprogress nounwind uwtable
define dso_local ptr @LLVMDIBuilderCreateFile(ptr noundef %0, ptr noundef %1, i64 noundef %2, ptr noundef %3, i64 noundef %4) #0 {
  %6 = alloca ptr, align 8
  %7 = alloca ptr, align 8
  %8 = alloca i64, align 8
  %9 = alloca ptr, align 8
  %10 = alloca i64, align 8
  %11 = alloca %"class.llvm::StringRef", align 8
  %12 = alloca %"class.llvm::StringRef", align 8
  %13 = alloca %"class.std::optional.245", align 8
  %14 = alloca %"class.std::optional.253", align 8
  store ptr %0, ptr %6, align 8
  store ptr %1, ptr %7, align 8
  store i64 %2, ptr %8, align 8
  store ptr %3, ptr %9, align 8
  store i64 %4, ptr %10, align 8
  %15 = load ptr, ptr %6, align 8
  %16 = call noundef ptr @_ZN4llvm6unwrapEP19LLVMOpaqueDIBuilder(ptr noundef %15)
  %17 = load ptr, ptr %7, align 8
  %18 = load i64, ptr %8, align 8
  call void @_ZN4llvm9StringRefC2EPKcm(ptr noundef nonnull align 8 dereferenceable(16) %11, ptr noundef %17, i64 noundef %18)
  %19 = load ptr, ptr %9, align 8
  %20 = load i64, ptr %10, align 8
  call void @_ZN4llvm9StringRefC2EPKcm(ptr noundef nonnull align 8 dereferenceable(16) %12, ptr noundef %19, i64 noundef %20)
  call void @_ZNSt8optionalIN4llvm6DIFile12ChecksumInfoINS0_9StringRefEEEEC2ESt9nullopt_t(ptr noundef nonnull align 8 dereferenceable(32) %13) #11
  call void @_ZNSt8optionalIN4llvm9StringRefEEC2ESt9nullopt_t(ptr noundef nonnull align 8 dereferenceable(24) %14) #11
  %21 = getelementptr inbounds nuw { ptr, i64 }, ptr %11, i32 0, i32 0
  %22 = load ptr, ptr %21, align 8
  %23 = getelementptr inbounds nuw { ptr, i64 }, ptr %11, i32 0, i32 1
  %24 = load i64, ptr %23, align 8
  %25 = getelementptr inbounds nuw { ptr, i64 }, ptr %12, i32 0, i32 0
  %26 = load ptr, ptr %25, align 8
  %27 = getelementptr inbounds nuw { ptr, i64 }, ptr %12, i32 0, i32 1
  %28 = load i64, ptr %27, align 8
  %29 = call noundef ptr @_ZN4llvm9DIBuilder10createFileENS_9StringRefES1_St8optionalINS_6DIFile12ChecksumInfoIS1_EEES2_IS1_E(ptr noundef nonnull align 8 dereferenceable(416) %16, ptr %22, i64 %24, ptr %26, i64 %28, ptr noundef byval(%"class.std::optional.245") align 8 %13, ptr noundef byval(%"class.std::optional.253") align 8 %14)
  %30 = call noundef ptr @_ZN4llvm4wrapEPKNS_8MetadataE(ptr noundef %29)
  ret ptr %30
}