; Function Attrs: mustprogress nounwind uwtable
define dso_local noundef ptr @LLVMDIBuilderCreateFile(ptr noundef nonnull %0, ptr noundef %1, i64 noundef %2, ptr noundef %3, i64 noundef %4) local_unnamed_addr #0 {
  %6 = alloca %"class.std::optional.245", align 8
  %7 = alloca %"class.std::optional.253", align 8
  %8 = getelementptr inbounds nuw i8, ptr %6, i64 24
  store i8 0, ptr %8, align 8
  %9 = getelementptr inbounds nuw i8, ptr %7, i64 16
  store i8 0, ptr %9, align 8
  %10 = tail call noundef ptr @_ZN4llvm9DIBuilder10createFileENS_9StringRefES1_St8optionalINS_6DIFile12ChecksumInfoIS1_EEES2_IS1_E(ptr noundef nonnull align 8 dereferenceable(416) %0, ptr %1, i64 %2, ptr %3, i64 %4, ptr noundef nonnull byval(%"class.std::optional.245") align 8 %6, ptr noundef nonnull byval(%"class.std::optional.253") align 8 %7) #15
  ret ptr %10
}